; Function Attrs: nounwind uwtable
define hidden i32 @SSL_generate_key_block(ptr noundef %0, ptr noundef %1, i64 noundef %2) local_unnamed_addr #0 {
  %4 = getelementptr inbounds nuw i8, ptr %0, i64 80
  %5 = load ptr, ptr %4, align 8, !tbaa !6
  %6 = getelementptr inbounds nuw i8, ptr %5, i64 280
  %7 = load ptr, ptr %6, align 8, !tbaa !62
  %8 = load ptr, ptr %7, align 8, !tbaa !63
  %9 = getelementptr inbounds nuw i8, ptr %0, i64 184
  %10 = load ptr, ptr %9, align 8, !tbaa !56
  %11 = getelementptr inbounds nuw i8, ptr %10, i64 16
  %12 = getelementptr inbounds nuw i8, ptr %10, i64 12
  %13 = load i32, ptr %12, align 4, !tbaa !65
  %14 = sext i32 %13 to i64
  %15 = getelementptr inbounds nuw i8, ptr %5, i64 16
  %16 = getelementptr inbounds nuw i8, ptr %5, i64 48
  %17 = tail call i32 %8(ptr noundef %0, ptr noundef %1, i64 noundef %2, ptr noundef nonnull %11, i64 noundef %14, ptr noundef nonnull @.str, i64 noundef 13, ptr noundef nonnull %15, i64 noundef 32, ptr noundef nonnull %16, i64 noundef 32) #8
  ret i32 %17
}